target datalayout = "e-m:e-p270:32:32-p271:32:32-p272:64:64-i64:64-i128:128-f80:128-n8:16:32:64-S128"
target triple = "x86_64-pc-linux-gnu"

%"struct.OpenImageIO::v3_1_0::ROI" = type { i32, i32, i32, i32, i32, i32, i32, i32 }
%"class.OpenImageIO::v3_1_0::ImageBuf" = type { %"class.std::unique_ptr" }
%"class.std::unique_ptr" = type { %"struct.std::__uniq_ptr_data" }
%"struct.std::__uniq_ptr_data" = type { %"class.std::__uniq_ptr_impl" }
%"class.std::__uniq_ptr_impl" = type { %"class.std::tuple" }
%"class.std::tuple" = type { %"struct.std::_Tuple_impl" }
%"struct.std::_Tuple_impl" = type { %"struct.std::_Tuple_impl.1", %"struct.std::_Head_base.2" }
%"struct.std::_Tuple_impl.1" = type { %"struct.std::_Head_base" }
%"struct.std::_Head_base" = type { ptr }
%"struct.std::_Head_base.2" = type { ptr }

@.str.15 = private unnamed_addr constant [37 x i8] c"ImageBufAlgo::circular_shift() error\00", align 1

; Function Attrs: mustprogress uwtable
define void @_ZN11OpenImageIO6v3_1_012ImageBufAlgo14circular_shiftERKNS0_8ImageBufEiiiNS0_3ROIEi(ptr dead_on_unwind noalias writable sret(%"class.OpenImageIO::v3_1_0::ImageBuf") align 8 %0, ptr noundef nonnull align 8 dereferenceable(16) %1, i32 noundef %2, i32 noundef %3, i32 noundef %4, ptr noundef byval(%"struct.OpenImageIO::v3_1_0::ROI") align 8 %5, i32 noundef %6) #6 personality ptr @__gxx_personality_v0 {
  %8 = alloca ptr, align 8
  %9 = alloca ptr, align 8
  %10 = alloca i32, align 4
  %11 = alloca i32, align 4
  %12 = alloca i32, align 4
  %13 = alloca i32, align 4
  %14 = alloca i1, align 1
  %15 = alloca i8, align 1
  %16 = alloca %"struct.OpenImageIO::v3_1_0::ROI", align 8
  %17 = alloca ptr, align 8
  %18 = alloca i32, align 4
  store ptr %0, ptr %8, align 8
  store ptr %1, ptr %9, align 8, !tbaa !8
  store i32 %2, ptr %10, align 4, !tbaa !10
  store i32 %3, ptr %11, align 4, !tbaa !10
  store i32 %4, ptr %12, align 4, !tbaa !10
  store i32 %6, ptr %13, align 4, !tbaa !10
  store i1 false, ptr %14, align 1
  call void @_ZN11OpenImageIO6v3_1_08ImageBufC1Ev(ptr noundef nonnull align 8 dereferenceable(16) %0)
  call void @llvm.lifetime.start.p0(i64 1, ptr %15) #3
  %19 = load ptr, ptr %9, align 8, !tbaa !8
  %20 = load i32, ptr %10, align 4, !tbaa !10
  %21 = load i32, ptr %11, align 4, !tbaa !10
  %22 = load i32, ptr %12, align 4, !tbaa !10
  call void @llvm.memcpy.p0.p0.i64(ptr align 4 %16, ptr align 8 %5, i64 32, i1 false), !tbaa.struct !12
  %23 = load i32, ptr %13, align 4, !tbaa !10
  %24 = invoke noundef zeroext i1 @_ZN11OpenImageIO6v3_1_012ImageBufAlgo14circular_shiftERNS0_8ImageBufERKS2_iiiNS0_3ROIEi(ptr noundef nonnull align 8 dereferenceable(16) %0, ptr noundef nonnull align 8 dereferenceable(16) %19, i32 noundef %20, i32 noundef %21, i32 noundef %22, ptr noundef byval(%"struct.OpenImageIO::v3_1_0::ROI") align 8 %16, i32 noundef %23)
          to label %25 unwind label %34

25:                                               ; preds = %7
  %26 = zext i1 %24 to i8
  store i8 %26, ptr %15, align 1, !tbaa !20
  %27 = load i8, ptr %15, align 1, !tbaa !20, !range !26, !noundef !27
  %28 = trunc i8 %27 to i1
  br i1 %28, label %38, label %29

29:                                               ; preds = %25
  %30 = invoke noundef zeroext i1 @_ZNK11OpenImageIO6v3_1_08ImageBuf9has_errorEv(ptr noundef nonnull align 8 dereferenceable(16) %0)
          to label %31 unwind label %34

31:                                               ; preds = %29
  br i1 %30, label %38, label %32

32:                                               ; preds = %31
  invoke void @_ZNK11OpenImageIO6v3_1_08ImageBuf8errorfmtIA37_cJEEEvRKT_DpOT0_(ptr noundef nonnull align 8 dereferenceable(16) %0, ptr noundef nonnull align 1 dereferenceable(37) @.str.15)
          to label %33 unwind label %34

33:                                               ; preds = %32
  br label %38

34:                                               ; preds = %32, %29, %7
  %35 = landingpad { ptr, i32 }
          cleanup
  %36 = extractvalue { ptr, i32 } %35, 0
  store ptr %36, ptr %17, align 8
  %37 = extractvalue { ptr, i32 } %35, 1
  store i32 %37, ptr %18, align 4
  call void @llvm.lifetime.end.p0(i64 1, ptr %15) #3
  call void @_ZN11OpenImageIO6v3_1_08ImageBufD1Ev(ptr noundef nonnull align 8 dereferenceable(16) %0) #3
  br label %42

38:                                               ; preds = %33, %31, %25
  store i1 true, ptr %14, align 1
  call void @llvm.lifetime.end.p0(i64 1, ptr %15) #3
  %39 = load i1, ptr %14, align 1
  br i1 %39, label %41, label %40

40:                                               ; preds = %38
  call void @_ZN11OpenImageIO6v3_1_08ImageBufD1Ev(ptr noundef nonnull align 8 dereferenceable(16) %0) #3
  br label %41

41:                                               ; preds = %40, %38
  ret void

42:                                               ; preds = %34
  %43 = load ptr, ptr %17, align 8
  %44 = load i32, ptr %18, align 4
  %45 = insertvalue { ptr, i32 } poison, ptr %43, 0
  %46 = insertvalue { ptr, i32 } %45, i32 %44, 1
  resume { ptr, i32 } %46
}