; Function Attrs: mustprogress uwtable
define void @_ZN11OpenImageIO6v3_1_012ImageBufAlgo14circular_shiftERKNS0_8ImageBufEiiiNS0_3ROIEi(ptr dead_on_unwind noalias nonnull writable sret(%"class.OpenImageIO::v3_1_0::ImageBuf") align 8 %0, ptr noundef nonnull align 8 dereferenceable(16) %1, i32 noundef %2, i32 noundef %3, i32 noundef %4, ptr noundef readonly byval(%"struct.OpenImageIO::v3_1_0::ROI") align 8 captures(none) %5, i32 noundef %6) local_unnamed_addr #5 personality ptr @__gxx_personality_v0 {
  tail call void @_ZN11OpenImageIO6v3_1_08ImageBufC1Ev(ptr noundef nonnull align 8 dereferenceable(16) %0)
  %8 = invoke noundef zeroext i1 @_ZN11OpenImageIO6v3_1_012ImageBufAlgo14circular_shiftERNS0_8ImageBufERKS2_iiiNS0_3ROIEi(ptr noundef nonnull align 8 dereferenceable(16) %0, ptr noundef nonnull align 8 dereferenceable(16) %1, i32 noundef %2, i32 noundef %3, i32 noundef %4, ptr noundef nonnull byval(%"struct.OpenImageIO::v3_1_0::ROI") align 8 %5, i32 noundef %6)
          to label %9 unwind label %14

9:                                                ; preds = %7
  br i1 %8, label %16, label %10

10:                                               ; preds = %9
  %11 = invoke noundef zeroext i1 @_ZNK11OpenImageIO6v3_1_08ImageBuf9has_errorEv(ptr noundef nonnull align 8 dereferenceable(16) %0)
          to label %12 unwind label %14

12:                                               ; preds = %10
  br i1 %11, label %16, label %13

13:                                               ; preds = %12
  invoke void @_ZNK11OpenImageIO6v3_1_08ImageBuf8errorfmtIA37_cJEEEvRKT_DpOT0_(ptr noundef nonnull align 8 dereferenceable(16) %0, ptr noundef nonnull align 1 dereferenceable(37) @.str.15)
          to label %16 unwind label %14

14:                                               ; preds = %13, %10, %7
  %15 = landingpad { ptr, i32 }
          cleanup
  tail call void @_ZN11OpenImageIO6v3_1_08ImageBufD1Ev(ptr noundef nonnull align 8 dereferenceable(16) %0) #27
  resume { ptr, i32 } %15

16:                                               ; preds = %9, %12, %13
  ret void
}